target datalayout = "e-m:e-p270:32:32-p271:32:32-p272:64:64-i64:64-i128:128-f80:128-n8:16:32:64-S128"
target triple = "x86_64-pc-linux-gnu"

%struct.sdshdr8 = type { i8, i8, i8, [0 x i8] }
%struct.sdshdr16 = type <{ i16, i16, i8, [0 x i8] }>
%struct.sdshdr32 = type <{ i32, i32, i8, [0 x i8] }>
%struct.sdshdr64 = type <{ i64, i64, i8, [0 x i8] }>

; Function Attrs: inlinehint nounwind uwtable
define internal i64 @sdslen(ptr noundef %0) #8 {
  %2 = alloca i64, align 8
  %3 = alloca ptr, align 8
  %4 = alloca i8, align 1
  %5 = alloca i32, align 4
  store ptr %0, ptr %3, align 8, !tbaa !11
  call void @llvm.lifetime.start.p0(i64 1, ptr %4) #12
  %6 = load ptr, ptr %3, align 8, !tbaa !11
  %7 = getelementptr inbounds i8, ptr %6, i64 -1
  %8 = load i8, ptr %7, align 1, !tbaa !86
  store i8 %8, ptr %4, align 1, !tbaa !86
  %9 = load i8, ptr %4, align 1, !tbaa !86
  %10 = zext i8 %9 to i32
  %11 = and i32 %10, 7
  switch i32 %11, label %40 [
    i32 0, label %12
    i32 1, label %17
    i32 2, label %23
    i32 3, label %29
    i32 4, label %35
  ]

12:                                               ; preds = %1
  %13 = load i8, ptr %4, align 1, !tbaa !86
  %14 = zext i8 %13 to i32
  %15 = ashr i32 %14, 3
  %16 = sext i32 %15 to i64
  store i64 %16, ptr %2, align 8
  store i32 1, ptr %5, align 4
  br label %41

17:                                               ; preds = %1
  %18 = load ptr, ptr %3, align 8, !tbaa !11
  %19 = getelementptr inbounds i8, ptr %18, i64 -3
  %20 = getelementptr inbounds nuw %struct.sdshdr8, ptr %19, i32 0, i32 0
  %21 = load i8, ptr %20, align 1, !tbaa !86
  %22 = zext i8 %21 to i64
  store i64 %22, ptr %2, align 8
  store i32 1, ptr %5, align 4
  br label %41

23:                                               ; preds = %1
  %24 = load ptr, ptr %3, align 8, !tbaa !11
  %25 = getelementptr inbounds i8, ptr %24, i64 -5
  %26 = getelementptr inbounds nuw %struct.sdshdr16, ptr %25, i32 0, i32 0
  %27 = load i16, ptr %26, align 1, !tbaa !90
  %28 = zext i16 %27 to i64
  store i64 %28, ptr %2, align 8
  store i32 1, ptr %5, align 4
  br label %41

29:                                               ; preds = %1
  %30 = load ptr, ptr %3, align 8, !tbaa !11
  %31 = getelementptr inbounds i8, ptr %30, i64 -9
  %32 = getelementptr inbounds nuw %struct.sdshdr32, ptr %31, i32 0, i32 0
  %33 = load i32, ptr %32, align 1, !tbaa !5
  %34 = zext i32 %33 to i64
  store i64 %34, ptr %2, align 8
  store i32 1, ptr %5, align 4
  br label %41

35:                                               ; preds = %1
  %36 = load ptr, ptr %3, align 8, !tbaa !11
  %37 = getelementptr inbounds i8, ptr %36, i64 -17
  %38 = getelementptr inbounds nuw %struct.sdshdr64, ptr %37, i32 0, i32 0
  %39 = load i64, ptr %38, align 1, !tbaa !31
  store i64 %39, ptr %2, align 8
  store i32 1, ptr %5, align 4
  br label %41

40:                                               ; preds = %1
  store i64 0, ptr %2, align 8
  store i32 1, ptr %5, align 4
  br label %41

41:                                               ; preds = %40, %35, %29, %23, %17, %12
  call void @llvm.lifetime.end.p0(i64 1, ptr %4) #12
  %42 = load i64, ptr %2, align 8
  ret i64 %42
}

; Function Attrs: nounwind uwtable
define dso_local ptr @zzlInsertAt(ptr noundef %0, ptr noundef %1, ptr noundef %2, double noundef %3) #0 {
  %5 = alloca ptr, align 8
  %6 = alloca ptr, align 8
  %7 = alloca ptr, align 8
  %8 = alloca double, align 8
  %9 = alloca ptr, align 8
  %10 = alloca [128 x i8], align 16
  %11 = alloca i32, align 4
  %12 = alloca i64, align 8
  %13 = alloca i32, align 4
  store ptr %0, ptr %5, align 8, !tbaa !11
  store ptr %1, ptr %6, align 8, !tbaa !11
  store ptr %2, ptr %7, align 8, !tbaa !11
  store double %3, ptr %8, align 8, !tbaa !9
  call void @llvm.lifetime.start.p0(i64 8, ptr %9) #12
  call void @llvm.lifetime.start.p0(i64 128, ptr %10) #12
  call void @llvm.lifetime.start.p0(i64 4, ptr %11) #12
  store i32 0, ptr %11, align 4, !tbaa !5
  call void @llvm.lifetime.start.p0(i64 8, ptr %12) #12
  call void @llvm.lifetime.start.p0(i64 4, ptr %13) #12
  %14 = load double, ptr %8, align 8, !tbaa !9
  %15 = call i32 @double2ll(double noundef %14, ptr noundef %12)
  store i32 %15, ptr %13, align 4, !tbaa !5
  %16 = load i32, ptr %13, align 4, !tbaa !5
  %17 = icmp ne i32 %16, 0
  br i1 %17, label %22, label %18

18:                                               ; preds = %4
  %19 = getelementptr inbounds [128 x i8], ptr %10, i64 0, i64 0
  %20 = load double, ptr %8, align 8, !tbaa !9
  %21 = call i32 @d2string(ptr noundef %19, i64 noundef 128, double noundef %20)
  store i32 %21, ptr %11, align 4, !tbaa !5
  br label %22

22:                                               ; preds = %18, %4
  %23 = load ptr, ptr %6, align 8, !tbaa !11
  %24 = icmp eq ptr %23, null
  br i1 %24, label %25, label %44

25:                                               ; preds = %22
  %26 = load ptr, ptr %5, align 8, !tbaa !11
  %27 = load ptr, ptr %7, align 8, !tbaa !11
  %28 = load ptr, ptr %7, align 8, !tbaa !11
  %29 = call i64 @sdslen(ptr noundef %28)
  %30 = trunc i64 %29 to i32
  %31 = call ptr @lpAppend(ptr noundef %26, ptr noundef %27, i32 noundef %30)
  store ptr %31, ptr %5, align 8, !tbaa !11
  %32 = load i32, ptr %13, align 4, !tbaa !5
  %33 = icmp ne i32 %32, 0
  br i1 %33, label %34, label %38

34:                                               ; preds = %25
  %35 = load ptr, ptr %5, align 8, !tbaa !11
  %36 = load i64, ptr %12, align 8, !tbaa !99
  %37 = call ptr @lpAppendInteger(ptr noundef %35, i64 noundef %36)
  store ptr %37, ptr %5, align 8, !tbaa !11
  br label %43

38:                                               ; preds = %25
  %39 = load ptr, ptr %5, align 8, !tbaa !11
  %40 = getelementptr inbounds [128 x i8], ptr %10, i64 0, i64 0
  %41 = load i32, ptr %11, align 4, !tbaa !5
  %42 = call ptr @lpAppend(ptr noundef %39, ptr noundef %40, i32 noundef %41)
  store ptr %42, ptr %5, align 8, !tbaa !11
  br label %43

43:                                               ; preds = %38, %34
  br label %66

44:                                               ; preds = %22
  %45 = load ptr, ptr %5, align 8, !tbaa !11
  %46 = load ptr, ptr %7, align 8, !tbaa !11
  %47 = load ptr, ptr %7, align 8, !tbaa !11
  %48 = call i64 @sdslen(ptr noundef %47)
  %49 = trunc i64 %48 to i32
  %50 = load ptr, ptr %6, align 8, !tbaa !11
  %51 = call ptr @lpInsertString(ptr noundef %45, ptr noundef %46, i32 noundef %49, ptr noundef %50, i32 noundef 0, ptr noundef %9)
  store ptr %51, ptr %5, align 8, !tbaa !11
  %52 = load i32, ptr %13, align 4, !tbaa !5
  %53 = icmp ne i32 %52, 0
  br i1 %53, label %54, label %59

54:                                               ; preds = %44
  %55 = load ptr, ptr %5, align 8, !tbaa !11
  %56 = load i64, ptr %12, align 8, !tbaa !99
  %57 = load ptr, ptr %9, align 8, !tbaa !11
  %58 = call ptr @lpInsertInteger(ptr noundef %55, i64 noundef %56, ptr noundef %57, i32 noundef 1, ptr noundef null)
  store ptr %58, ptr %5, align 8, !tbaa !11
  br label %65

59:                                               ; preds = %44
  %60 = load ptr, ptr %5, align 8, !tbaa !11
  %61 = getelementptr inbounds [128 x i8], ptr %10, i64 0, i64 0
  %62 = load i32, ptr %11, align 4, !tbaa !5
  %63 = load ptr, ptr %9, align 8, !tbaa !11
  %64 = call ptr @lpInsertString(ptr noundef %60, ptr noundef %61, i32 noundef %62, ptr noundef %63, i32 noundef 1, ptr noundef null)
  store ptr %64, ptr %5, align 8, !tbaa !11
  br label %65

65:                                               ; preds = %59, %54
  br label %66

66:                                               ; preds = %65, %43
  %67 = load ptr, ptr %5, align 8, !tbaa !11
  call void @llvm.lifetime.end.p0(i64 4, ptr %13) #12
  call void @llvm.lifetime.end.p0(i64 8, ptr %12) #12
  call void @llvm.lifetime.end.p0(i64 4, ptr %11) #12
  call void @llvm.lifetime.end.p0(i64 128, ptr %10) #12
  call void @llvm.lifetime.end.p0(i64 8, ptr %9) #12
  ret ptr %67
}