; Function Attrs: nounwind uwtable
define dso_local ptr @zzlInsertAt(ptr noundef %0, ptr noundef %1, ptr noundef %2, double noundef %3) local_unnamed_addr #0 {
  %5 = alloca ptr, align 8
  %6 = alloca [128 x i8], align 16
  %7 = alloca i64, align 8
  call void @llvm.lifetime.start.p0(i64 8, ptr nonnull %5) #18
  call void @llvm.lifetime.start.p0(i64 128, ptr nonnull %6) #18
  call void @llvm.lifetime.start.p0(i64 8, ptr nonnull %7) #18
  %8 = call i32 @double2ll(double noundef %3, ptr noundef nonnull %7) #18
  %.not = icmp eq i32 %8, 0
  br i1 %.not, label %9, label %11

9:                                                ; preds = %4
  %10 = call i32 @d2string(ptr noundef nonnull %6, i64 noundef 128, double noundef %3) #18
  br label %11

11:                                               ; preds = %9, %4
  %.019 = phi i32 [ 0, %4 ], [ %10, %9 ]
  %12 = icmp eq ptr %1, null
  %13 = getelementptr inbounds i8, ptr %2, i64 -1
  %14 = load i8, ptr %13, align 1, !tbaa !77
  %15 = zext i8 %14 to i32
  %16 = and i32 %15, 7
  br i1 %12, label %17, label %43

17:                                               ; preds = %11
  switch i32 %16, label %sdslen.exit [
    i32 0, label %18
    i32 1, label %21
    i32 2, label %25
    i32 3, label %29
    i32 4, label %33
  ]

18:                                               ; preds = %17
  %19 = lshr i32 %15, 3
  %20 = zext nneg i32 %19 to i64
  br label %sdslen.exit

21:                                               ; preds = %17
  %22 = getelementptr inbounds i8, ptr %2, i64 -3
  %23 = load i8, ptr %22, align 1, !tbaa !77
  %24 = zext i8 %23 to i64
  br label %sdslen.exit

25:                                               ; preds = %17
  %26 = getelementptr inbounds i8, ptr %2, i64 -5
  %27 = load i16, ptr %26, align 1, !tbaa !79
  %28 = zext i16 %27 to i64
  br label %sdslen.exit

29:                                               ; preds = %17
  %30 = getelementptr inbounds i8, ptr %2, i64 -9
  %31 = load i32, ptr %30, align 1, !tbaa !78
  %32 = zext i32 %31 to i64
  br label %sdslen.exit

33:                                               ; preds = %17
  %34 = getelementptr inbounds i8, ptr %2, i64 -17
  %35 = load i64, ptr %34, align 1, !tbaa !26
  br label %sdslen.exit

sdslen.exit:                                      ; preds = %17, %18, %21, %25, %29, %33
  %.0.i = phi i64 [ %35, %33 ], [ %32, %29 ], [ %28, %25 ], [ %24, %21 ], [ %20, %18 ], [ 0, %17 ]
  %36 = trunc i64 %.0.i to i32
  %37 = call ptr @lpAppend(ptr noundef %0, ptr noundef nonnull %2, i32 noundef %36) #18
  br i1 %.not, label %41, label %38

38:                                               ; preds = %sdslen.exit
  %39 = load i64, ptr %7, align 8, !tbaa !88
  %40 = call ptr @lpAppendInteger(ptr noundef %37, i64 noundef %39) #18
  br label %71

41:                                               ; preds = %sdslen.exit
  %42 = call ptr @lpAppend(ptr noundef %37, ptr noundef nonnull %6, i32 noundef %.019) #18
  br label %71

43:                                               ; preds = %11
  switch i32 %16, label %sdslen.exit22 [
    i32 0, label %44
    i32 1, label %47
    i32 2, label %51
    i32 3, label %55
    i32 4, label %59
  ]

44:                                               ; preds = %43
  %45 = lshr i32 %15, 3
  %46 = zext nneg i32 %45 to i64
  br label %sdslen.exit22

47:                                               ; preds = %43
  %48 = getelementptr inbounds i8, ptr %2, i64 -3
  %49 = load i8, ptr %48, align 1, !tbaa !77
  %50 = zext i8 %49 to i64
  br label %sdslen.exit22

51:                                               ; preds = %43
  %52 = getelementptr inbounds i8, ptr %2, i64 -5
  %53 = load i16, ptr %52, align 1, !tbaa !79
  %54 = zext i16 %53 to i64
  br label %sdslen.exit22

55:                                               ; preds = %43
  %56 = getelementptr inbounds i8, ptr %2, i64 -9
  %57 = load i32, ptr %56, align 1, !tbaa !78
  %58 = zext i32 %57 to i64
  br label %sdslen.exit22

59:                                               ; preds = %43
  %60 = getelementptr inbounds i8, ptr %2, i64 -17
  %61 = load i64, ptr %60, align 1, !tbaa !26
  br label %sdslen.exit22

sdslen.exit22:                                    ; preds = %43, %44, %47, %51, %55, %59
  %.0.i21 = phi i64 [ %61, %59 ], [ %58, %55 ], [ %54, %51 ], [ %50, %47 ], [ %46, %44 ], [ 0, %43 ]
  %62 = trunc i64 %.0.i21 to i32
  %63 = call ptr @lpInsertString(ptr noundef %0, ptr noundef nonnull %2, i32 noundef %62, ptr noundef nonnull %1, i32 noundef 0, ptr noundef nonnull %5) #18
  br i1 %.not, label %68, label %64

64:                                               ; preds = %sdslen.exit22
  %65 = load i64, ptr %7, align 8, !tbaa !88
  %66 = load ptr, ptr %5, align 8, !tbaa !9
  %67 = call ptr @lpInsertInteger(ptr noundef %63, i64 noundef %65, ptr noundef %66, i32 noundef 1, ptr noundef null) #18
  br label %71

68:                                               ; preds = %sdslen.exit22
  %69 = load ptr, ptr %5, align 8, !tbaa !9
  %70 = call ptr @lpInsertString(ptr noundef %63, ptr noundef nonnull %6, i32 noundef %.019, ptr noundef %69, i32 noundef 1, ptr noundef null) #18
  br label %71

71:                                               ; preds = %64, %68, %38, %41
  %.0 = phi ptr [ %40, %38 ], [ %42, %41 ], [ %67, %64 ], [ %70, %68 ]
  call void @llvm.lifetime.end.p0(i64 8, ptr nonnull %7) #18
  call void @llvm.lifetime.end.p0(i64 128, ptr nonnull %6) #18
  call void @llvm.lifetime.end.p0(i64 8, ptr nonnull %5) #18
  ret ptr %.0
}